target datalayout = "e-m:e-p270:32:32-p271:32:32-p272:64:64-i64:64-i128:128-f80:128-n8:16:32:64-S128"
target triple = "x86_64-pc-linux-gnu"

%"class.LIEF::PE::ResourceDirectory" = type { %"class.LIEF::PE::ResourceNode.base", i32, i32, i16, i16, i16, i16, [4 x i8] }
%"class.LIEF::PE::ResourceNode.base" = type <{ %"class.LIEF::Object", i32, i32, %"class.std::__cxx11::basic_string", %"class.std::vector", i32 }>
%"class.LIEF::Object" = type { ptr }
%"class.std::__cxx11::basic_string" = type { %"struct.std::__cxx11::basic_string<char16_t>::_Alloc_hider", i64, %union.anon }
%"struct.std::__cxx11::basic_string<char16_t>::_Alloc_hider" = type { ptr }
%union.anon = type { i64, [8 x i8] }
%"class.std::vector" = type { %"struct.std::_Vector_base" }
%"struct.std::_Vector_base" = type { %"struct.std::_Vector_base<std::unique_ptr<LIEF::PE::ResourceNode>, std::allocator<std::unique_ptr<LIEF::PE::ResourceNode>>>::_Vector_impl" }
%"struct.std::_Vector_base<std::unique_ptr<LIEF::PE::ResourceNode>, std::allocator<std::unique_ptr<LIEF::PE::ResourceNode>>>::_Vector_impl" = type { %"struct.std::_Vector_base<std::unique_ptr<LIEF::PE::ResourceNode>, std::allocator<std::unique_ptr<LIEF::PE::ResourceNode>>>::_Vector_impl_data" }
%"struct.std::_Vector_base<std::unique_ptr<LIEF::PE::ResourceNode>, std::allocator<std::unique_ptr<LIEF::PE::ResourceNode>>>::_Vector_impl_data" = type { ptr, ptr, ptr }

; Function Attrs: inlinehint mustprogress nounwind uwtable
define linkonce_odr void @_ZSt4swapItENSt9enable_ifIXsr6__and_ISt6__not_ISt15__is_tuple_likeIT_EESt21is_move_constructibleIS3_ESt18is_move_assignableIS3_EEE5valueEvE4typeERS3_SC_(ptr noundef nonnull align 2 dereferenceable(2) %0, ptr noundef nonnull align 2 dereferenceable(2) %1) #2 comdat {
  %3 = alloca ptr, align 8
  %4 = alloca ptr, align 8
  %5 = alloca i16, align 2
  store ptr %0, ptr %3, align 8, !tbaa !12
  store ptr %1, ptr %4, align 8, !tbaa !12
  call void @llvm.lifetime.start.p0(i64 2, ptr %5) #9
  %6 = load ptr, ptr %3, align 8, !tbaa !12
  %7 = load i16, ptr %6, align 2, !tbaa !14
  store i16 %7, ptr %5, align 2, !tbaa !14
  %8 = load ptr, ptr %4, align 8, !tbaa !12
  %9 = load i16, ptr %8, align 2, !tbaa !14
  %10 = load ptr, ptr %3, align 8, !tbaa !12
  store i16 %9, ptr %10, align 2, !tbaa !14
  %11 = load i16, ptr %5, align 2, !tbaa !14
  %12 = load ptr, ptr %4, align 8, !tbaa !12
  store i16 %11, ptr %12, align 2, !tbaa !14
  call void @llvm.lifetime.end.p0(i64 2, ptr %5) #9
  ret void
}

; Function Attrs: inlinehint mustprogress nounwind uwtable
define linkonce_odr void @_ZSt4swapIjENSt9enable_ifIXsr6__and_ISt6__not_ISt15__is_tuple_likeIT_EESt21is_move_constructibleIS3_ESt18is_move_assignableIS3_EEE5valueEvE4typeERS3_SC_(ptr noundef nonnull align 4 dereferenceable(4) %0, ptr noundef nonnull align 4 dereferenceable(4) %1) #2 comdat {
  %3 = alloca ptr, align 8
  %4 = alloca ptr, align 8
  %5 = alloca i32, align 4
  store ptr %0, ptr %3, align 8, !tbaa !8
  store ptr %1, ptr %4, align 8, !tbaa !8
  call void @llvm.lifetime.start.p0(i64 4, ptr %5) #9
  %6 = load ptr, ptr %3, align 8, !tbaa !8
  %7 = load i32, ptr %6, align 4, !tbaa !10
  store i32 %7, ptr %5, align 4, !tbaa !10
  %8 = load ptr, ptr %4, align 8, !tbaa !8
  %9 = load i32, ptr %8, align 4, !tbaa !10
  %10 = load ptr, ptr %3, align 8, !tbaa !8
  store i32 %9, ptr %10, align 4, !tbaa !10
  %11 = load i32, ptr %5, align 4, !tbaa !10
  %12 = load ptr, ptr %4, align 8, !tbaa !8
  store i32 %11, ptr %12, align 4, !tbaa !10
  call void @llvm.lifetime.end.p0(i64 4, ptr %5) #9
  ret void
}

; Function Attrs: mustprogress nounwind uwtable
define void @_ZN4LIEF2PE17ResourceDirectory4swapERS1_(ptr noundef nonnull align 8 dereferenceable(92) %0, ptr noundef nonnull align 8 dereferenceable(92) %1) #0 align 2 {
  %3 = alloca ptr, align 8
  %4 = alloca ptr, align 8
  store ptr %0, ptr %3, align 8, !tbaa !3
  store ptr %1, ptr %4, align 8, !tbaa !3
  %5 = load ptr, ptr %3, align 8
  %6 = load ptr, ptr %4, align 8, !tbaa !3
  call void @_ZN4LIEF2PE12ResourceNode4swapERS1_(ptr noundef nonnull align 8 dereferenceable(76) %5, ptr noundef nonnull align 8 dereferenceable(76) %6)
  %7 = getelementptr inbounds nuw %"class.LIEF::PE::ResourceDirectory", ptr %5, i32 0, i32 1
  %8 = load ptr, ptr %4, align 8, !tbaa !3
  %9 = getelementptr inbounds nuw %"class.LIEF::PE::ResourceDirectory", ptr %8, i32 0, i32 1
  call void @_ZSt4swapIjENSt9enable_ifIXsr6__and_ISt6__not_ISt15__is_tuple_likeIT_EESt21is_move_constructibleIS3_ESt18is_move_assignableIS3_EEE5valueEvE4typeERS3_SC_(ptr noundef nonnull align 4 dereferenceable(4) %7, ptr noundef nonnull align 4 dereferenceable(4) %9) #9
  %10 = getelementptr inbounds nuw %"class.LIEF::PE::ResourceDirectory", ptr %5, i32 0, i32 2
  %11 = load ptr, ptr %4, align 8, !tbaa !3
  %12 = getelementptr inbounds nuw %"class.LIEF::PE::ResourceDirectory", ptr %11, i32 0, i32 2
  call void @_ZSt4swapIjENSt9enable_ifIXsr6__and_ISt6__not_ISt15__is_tuple_likeIT_EESt21is_move_constructibleIS3_ESt18is_move_assignableIS3_EEE5valueEvE4typeERS3_SC_(ptr noundef nonnull align 4 dereferenceable(4) %10, ptr noundef nonnull align 4 dereferenceable(4) %12) #9
  %13 = getelementptr inbounds nuw %"class.LIEF::PE::ResourceDirectory", ptr %5, i32 0, i32 3
  %14 = load ptr, ptr %4, align 8, !tbaa !3
  %15 = getelementptr inbounds nuw %"class.LIEF::PE::ResourceDirectory", ptr %14, i32 0, i32 3
  call void @_ZSt4swapItENSt9enable_ifIXsr6__and_ISt6__not_ISt15__is_tuple_likeIT_EESt21is_move_constructibleIS3_ESt18is_move_assignableIS3_EEE5valueEvE4typeERS3_SC_(ptr noundef nonnull align 2 dereferenceable(2) %13, ptr noundef nonnull align 2 dereferenceable(2) %15) #9
  %16 = getelementptr inbounds nuw %"class.LIEF::PE::ResourceDirectory", ptr %5, i32 0, i32 6
  %17 = load ptr, ptr %4, align 8, !tbaa !3
  %18 = getelementptr inbounds nuw %"class.LIEF::PE::ResourceDirectory", ptr %17, i32 0, i32 6
  call void @_ZSt4swapItENSt9enable_ifIXsr6__and_ISt6__not_ISt15__is_tuple_likeIT_EESt21is_move_constructibleIS3_ESt18is_move_assignableIS3_EEE5valueEvE4typeERS3_SC_(ptr noundef nonnull align 2 dereferenceable(2) %16, ptr noundef nonnull align 2 dereferenceable(2) %18) #9
  %19 = getelementptr inbounds nuw %"class.LIEF::PE::ResourceDirectory", ptr %5, i32 0, i32 5
  %20 = load ptr, ptr %4, align 8, !tbaa !3
  %21 = getelementptr inbounds nuw %"class.LIEF::PE::ResourceDirectory", ptr %20, i32 0, i32 5
  call void @_ZSt4swapItENSt9enable_ifIXsr6__and_ISt6__not_ISt15__is_tuple_likeIT_EESt21is_move_constructibleIS3_ESt18is_move_assignableIS3_EEE5valueEvE4typeERS3_SC_(ptr noundef nonnull align 2 dereferenceable(2) %19, ptr noundef nonnull align 2 dereferenceable(2) %21) #9
  %22 = getelementptr inbounds nuw %"class.LIEF::PE::ResourceDirectory", ptr %5, i32 0, i32 6
  %23 = load ptr, ptr %4, align 8, !tbaa !3
  %24 = getelementptr inbounds nuw %"class.LIEF::PE::ResourceDirectory", ptr %23, i32 0, i32 6
  call void @_ZSt4swapItENSt9enable_ifIXsr6__and_ISt6__not_ISt15__is_tuple_likeIT_EESt21is_move_constructibleIS3_ESt18is_move_assignableIS3_EEE5valueEvE4typeERS3_SC_(ptr noundef nonnull align 2 dereferenceable(2) %22, ptr noundef nonnull align 2 dereferenceable(2) %24) #9
  ret void
}