; Function Attrs: mustprogress nounwind uwtable
define void @_ZN4LIEF2PE17ResourceDirectory4swapERS1_(ptr noundef nonnull align 8 dereferenceable(92) %0, ptr noundef nonnull align 8 dereferenceable(92) %1) local_unnamed_addr #0 align 2 {
  tail call void @_ZN4LIEF2PE12ResourceNode4swapERS1_(ptr noundef nonnull align 8 dereferenceable(76) %0, ptr noundef nonnull align 8 dereferenceable(76) %1) #7
  %3 = getelementptr inbounds nuw i8, ptr %0, i64 76
  %4 = getelementptr inbounds nuw i8, ptr %1, i64 76
  %5 = load i32, ptr %3, align 4, !tbaa !3
  %6 = load i32, ptr %4, align 4, !tbaa !3
  store i32 %6, ptr %3, align 4, !tbaa !3
  store i32 %5, ptr %4, align 4, !tbaa !3
  %7 = getelementptr inbounds nuw i8, ptr %0, i64 80
  %8 = getelementptr inbounds nuw i8, ptr %1, i64 80
  %9 = load i32, ptr %7, align 8, !tbaa !3
  %10 = load i32, ptr %8, align 8, !tbaa !3
  store i32 %10, ptr %7, align 8, !tbaa !3
  store i32 %9, ptr %8, align 8, !tbaa !3
  %11 = getelementptr inbounds nuw i8, ptr %0, i64 84
  %12 = getelementptr inbounds nuw i8, ptr %1, i64 84
  %13 = load i16, ptr %11, align 4, !tbaa !7
  %14 = load i16, ptr %12, align 4, !tbaa !7
  store i16 %14, ptr %11, align 4, !tbaa !7
  store i16 %13, ptr %12, align 4, !tbaa !7
  %15 = getelementptr inbounds nuw i8, ptr %0, i64 90
  %16 = getelementptr inbounds nuw i8, ptr %1, i64 90
  %17 = load i16, ptr %15, align 2, !tbaa !7
  %18 = load i16, ptr %16, align 2, !tbaa !7
  store i16 %18, ptr %15, align 2, !tbaa !7
  store i16 %17, ptr %16, align 2, !tbaa !7
  %19 = getelementptr inbounds nuw i8, ptr %0, i64 88
  %20 = getelementptr inbounds nuw i8, ptr %1, i64 88
  %21 = load i16, ptr %19, align 8, !tbaa !7
  %22 = load i16, ptr %20, align 8, !tbaa !7
  store i16 %22, ptr %19, align 8, !tbaa !7
  store i16 %21, ptr %20, align 8, !tbaa !7
  %23 = load i16, ptr %15, align 2, !tbaa !7
  %24 = load i16, ptr %16, align 2, !tbaa !7
  store i16 %24, ptr %15, align 2, !tbaa !7
  store i16 %23, ptr %16, align 2, !tbaa !7
  ret void
}